; Function Attrs: mustprogress nofree norecurse nosync nounwind memory(readwrite, inaccessiblemem: none) uwtable
define void @_ZN7testing8internal12UnitTestImpl14UnshuffleTestsEv(ptr noundef nonnull readonly align 8 captures(none) dereferenceable(497) %0) local_unnamed_addr #30 align 2 {
  %2 = getelementptr inbounds nuw i8, ptr %0, i64 184
  %3 = getelementptr inbounds nuw i8, ptr %0, i64 192
  %4 = load ptr, ptr %3, align 8, !tbaa !243
  %5 = load ptr, ptr %2, align 8, !tbaa !244
  %.not = icmp eq ptr %4, %5
  br i1 %.not, label %._crit_edge, label %.lr.ph

.lr.ph:                                           ; preds = %1
  %6 = ptrtoint ptr %4 to i64
  %7 = ptrtoint ptr %5 to i64
  %8 = sub i64 %6, %7
  %9 = ashr exact i64 %8, 3
  %10 = getelementptr inbounds nuw i8, ptr %0, i64 208
  %11 = load ptr, ptr %10, align 8, !tbaa !658
  %umax = tail call i64 @llvm.umax.i64(i64 %9, i64 1)
  br label %12

._crit_edge:                                      ; preds = %_ZN7testing8TestCase14UnshuffleTestsEv.exit, %1
  ret void

12:                                               ; preds = %.lr.ph, %_ZN7testing8TestCase14UnshuffleTestsEv.exit
  %.05 = phi i64 [ 0, %.lr.ph ], [ %28, %_ZN7testing8TestCase14UnshuffleTestsEv.exit ]
  %13 = getelementptr inbounds nuw ptr, ptr %5, i64 %.05
  %14 = load ptr, ptr %13, align 8, !tbaa !225
  %15 = getelementptr inbounds nuw i8, ptr %14, i64 72
  %16 = getelementptr inbounds nuw i8, ptr %14, i64 80
  %17 = load ptr, ptr %16, align 8, !tbaa !660
  %18 = load ptr, ptr %15, align 8, !tbaa !658
  %.not.i = icmp eq ptr %17, %18
  br i1 %.not.i, label %_ZN7testing8TestCase14UnshuffleTestsEv.exit, label %.lr.ph.preheader.i

.lr.ph.preheader.i:                               ; preds = %12
  %19 = ptrtoint ptr %17 to i64
  %20 = ptrtoint ptr %18 to i64
  %21 = sub i64 %19, %20
  %22 = ashr exact i64 %21, 2
  %umax.i = tail call i64 @llvm.umax.i64(i64 %22, i64 1)
  br label %.lr.ph.i

.lr.ph.i:                                         ; preds = %.lr.ph.i, %.lr.ph.preheader.i
  %.04.i = phi i64 [ %25, %.lr.ph.i ], [ 0, %.lr.ph.preheader.i ]
  %23 = trunc i64 %.04.i to i32
  %24 = getelementptr inbounds nuw i32, ptr %18, i64 %.04.i
  store i32 %23, ptr %24, align 4, !tbaa !18
  %25 = add nuw i64 %.04.i, 1
  %exitcond.not.i = icmp eq i64 %25, %umax.i
  br i1 %exitcond.not.i, label %_ZN7testing8TestCase14UnshuffleTestsEv.exit, label %.lr.ph.i, !llvm.loop !664

_ZN7testing8TestCase14UnshuffleTestsEv.exit:      ; preds = %.lr.ph.i, %12
  %26 = trunc i64 %.05 to i32
  %27 = getelementptr inbounds nuw i32, ptr %11, i64 %.05
  store i32 %26, ptr %27, align 4, !tbaa !18
  %28 = add nuw i64 %.05, 1
  %exitcond.not = icmp eq i64 %28, %umax
  br i1 %exitcond.not, label %._crit_edge, label %12, !llvm.loop !1033
}